(dp0
I0
(dp1
sI1
(dp2
sI2
(dp3
sI3
(dp4
sI4
(dp5
sI5
(dp6
sI6
(dp7
sI7
(dp8
sI8
(dp9
sI9
(dp10
sI10
(dp11
sI11
(dp12
sI12
(dp13
sI13
(dp14
sI14
(dp15
sI15
(dp16
sI16
(dp17
sI17
(dp18
sI18
(dp19
sI19
(dp20
sI20
(dp21
sI21
(dp22
sI22
(dp23
sI23
(dp24
sI24
(dp25
sI25
(dp26
sI26
(dp27
sI27
(dp28
sI28
(dp29
sI29
(dp30
sI30
(dp31
sI31
(dp32
sI32
(dp33
sI33
(dp34
sI34
(dp35
sI35
(dp36
sI36
(dp37
sI37
(dp38
sI38
(dp39
sI39
(dp40
sI40
(dp41
sI41
(dp42
sI42
(dp43
sI43
(dp44
sI44
(dp45
sI45
(dp46
sI46
(dp47
sI47
(dp48
sI48
(dp49
sI49
(dp50
sI50
(dp51
sI51
(dp52
sI52
(dp53
sI53
(dp54
sI54
(dp55
sI55
(dp56
sI56
(dp57
sI57
(dp58
sI58
(dp59
sI59
(dp60
sI60
(dp61
sI61
(dp62
sI62
(dp63
sI63
(dp64
sI64
(dp65
sI65
(dp66
sI66
(dp67
sI67
(dp68
sI68
(dp69
sI69
(dp70
sI70
(dp71
sI71
(dp72
sI72
(dp73
sI73
(dp74
sI74
(dp75
sI75
(dp76
sI76
(dp77
sI77
(dp78
sI78
(dp79
sI79
(dp80
sI80
(dp81
sI81
(dp82
sI82
(dp83
sI83
(dp84
sI84
(dp85
sI85
(dp86
sI86
(dp87
sI87
(dp88
sI88
(dp89
sI89
(dp90
sI90
(dp91
sI91
(dp92
sI92
(dp93
sI93
(dp94
sI94
(dp95
sI95
(dp96
sI96
(dp97
sI97
(dp98
sI98
(dp99
sI99
(dp100
sI100
(dp101
sI101
(dp102
sI102
(dp103
sI103
(dp104
sI104
(dp105
sI105
(dp106
sI106
(dp107
sI107
(dp108
sI108
(dp109
sI109
(dp110
sI110
(dp111
sI111
(dp112
sI112
(dp113
sI113
(dp114
sI114
(dp115
sI115
(dp116
sI116
(dp117
sI117
(dp118
sI118
(dp119
sI119
(dp120
sI120
(dp121
sI121
(dp122
sI122
(dp123
sI123
(dp124
sI124
(dp125
sI125
(dp126
sI126
(dp127
sI127
(dp128
sI128
(dp129
sI129
(dp130
sI130
(dp131
sI131
(dp132
sI132
(dp133
sI133
(dp134
sI134
(dp135
sI135
(dp136
sI136
(dp137
sI137
(dp138
sI138
(dp139
sI139
(dp140
sI140
(dp141
sI141
(dp142
sI142
(dp143
sI143
(dp144
sI144
(dp145
sI145
(dp146
sI146
(dp147
sI147
(dp148
sI148
(dp149
sI149
(dp150
sI150
(dp151
sI151
(dp152
sI152
(dp153
sI153
(dp154
sI154
(dp155
sI155
(dp156
sI156
(dp157
sI157
(dp158
sI158
(dp159
sI159
(dp160
sI160
(dp161
sI161
(dp162
sI162
(dp163
sI163
(dp164
sI164
(dp165
sI165
(dp166
sI166
(dp167
sI167
(dp168
sI168
(dp169
sI169
(dp170
sI170
(dp171
sI171
(dp172
sI172
(dp173
sI173
(dp174
sI174
(dp175
sI175
(dp176
sI176
(dp177
sI177
(dp178
sI178
(dp179
sI179
(dp180
sI180
(dp181
sI181
(dp182
sI182
(dp183
sI183
(dp184
sI184
(dp185
sI185
(dp186
sI186
(dp187
sI187
(dp188
sI188
(dp189
sI189
(dp190
sI190
(dp191
sI191
(dp192
sI192
(dp193
sI193
(dp194
sI194
(dp195
sI195
(dp196
sI196
(dp197
sI197
(dp198
sI198
(dp199
sI199
(dp200
sI200
(dp201
sI201
(dp202
sI202
(dp203
sI203
(dp204
sI204
(dp205
sI205
(dp206
sI206
(dp207
sI207
(dp208
sI208
(dp209
sI209
(dp210
sI210
(dp211
sI211
(dp212
sI212
(dp213
sI213
(dp214
sI214
(dp215
sI215
(dp216
sI216
(dp217
sI217
(dp218
sI218
(dp219
sI219
(dp220
sI220
(dp221
sI221
(dp222
sI222
(dp223
sI223
(dp224
sI224
(dp225
sI225
(dp226
sI226
(dp227
sI227
(dp228
sI228
(dp229
sI229
(dp230
sI230
(dp231
sI231
(dp232
sI232
(dp233
sI233
(dp234
sI234
(dp235
sI235
(dp236
sI236
(dp237
sI237
(dp238
sI238
(dp239
sI239
(dp240
sI240
(dp241
sI241
(dp242
sI242
(dp243
sI243
(dp244
sI244
(dp245
sI245
(dp246
sI246
(dp247
sI247
(dp248
sI248
(dp249
sI249
(dp250
sI250
(dp251
sI251
(dp252
sI252
(dp253
sI253
(dp254
sI254
(dp255
sI255
(dp256
sI256
(dp257
sI257
(dp258
sI258
(dp259
sI259
(dp260
sI260
(dp261
sI261
(dp262
sI262
(dp263
sI263
(dp264
sI264
(dp265
sI265
(dp266
sI266
(dp267
sI267
(dp268
sI268
(dp269
sI269
(dp270
sI270
(dp271
sI271
(dp272
sI272
(dp273
sI273
(dp274
sI274
(dp275
sI275
(dp276
sI276
(dp277
sI277
(dp278
sI278
(dp279
sI279
(dp280
sI280
(dp281
sI281
(dp282
sI282
(dp283
sI283
(dp284
sI284
(dp285
sI285
(dp286
sI286
(dp287
sI287
(dp288
sI288
(dp289
sI289
(dp290
sI290
(dp291
sI291
(dp292
sI292
(dp293
sI293
(dp294
sI294
(dp295
sI295
(dp296
sI296
(dp297
sI297
(dp298
sI298
(dp299
sI299
(dp300
sI300
(dp301
sI301
(dp302
sI302
(dp303
sI303
(dp304
sI304
(dp305
sI305
(dp306
sI306
(dp307
sI307
(dp308
sI308
(dp309
sI309
(dp310
sI310
(dp311
sI311
(dp312
sI312
(dp313
sI313
(dp314
sI314
(dp315
sI315
(dp316
sI316
(dp317
sI317
(dp318
sI318
(dp319
sI319
(dp320
sI320
(dp321
sI321
(dp322
sI322
(dp323
sI323
(dp324
sI324
(dp325
sI325
(dp326
sI326
(dp327
sI327
(dp328
sI328
(dp329
sI329
(dp330
sI330
(dp331
sI331
(dp332
sI332
(dp333
sI333
(dp334
sI334
(dp335
sI335
(dp336
sI336
(dp337
sI337
(dp338
sI338
(dp339
sI339
(dp340
sI340
(dp341
sI341
(dp342
sI342
(dp343
sI343
(dp344
sI344
(dp345
sI345
(dp346
sI346
(dp347
sI347
(dp348
sI348
(dp349
sI349
(dp350
sI350
(dp351
sI351
(dp352
sI352
(dp353
sI353
(dp354
sI354
(dp355
sI355
(dp356
sI356
(dp357
sI357
(dp358
sI358
(dp359
sI359
(dp360
sI360
(dp361
sI361
(dp362
sI362
(dp363
sI363
(dp364
sI364
(dp365
sI365
(dp366
sI366
(dp367
sI367
(dp368
sI368
(dp369
sI369
(dp370
sI370
(dp371
sI371
(dp372
sI372
(dp373
sI373
(dp374
sI374
(dp375
sI375
(dp376
sI376
(dp377
sI377
(dp378
sI378
(dp379
sI379
(dp380
sI380
(dp381
sI381
(dp382
sI382
(dp383
sI383
(dp384
sI384
(dp385
sI385
(dp386
sI386
(dp387
sI387
(dp388
sI388
(dp389
sI389
(dp390
sI390
(dp391
sI391
(dp392
sI392
(dp393
sI393
(dp394
sI394
(dp395
sI395
(dp396
sI396
(dp397
sI397
(dp398
sI398
(dp399
sI399
(dp400
sI400
(dp401
sI401
(dp402
sI402
(dp403
sI403
(dp404
sI404
(dp405
sI405
(dp406
sI406
(dp407
sI407
(dp408
sI408
(dp409
sI409
(dp410
sI410
(dp411
sI411
(dp412
sI412
(dp413
sI413
(dp414
sI414
(dp415
sI415
(dp416
sI416
(dp417
sI417
(dp418
sI418
(dp419
sI419
(dp420
sI420
(dp421
sI421
(dp422
sI422
(dp423
sI423
(dp424
sI424
(dp425
sI425
(dp426
sI426
(dp427
sI427
(dp428
sI428
(dp429
sI429
(dp430
sI430
(dp431
sI431
(dp432
sI432
(dp433
sI433
(dp434
sI434
(dp435
sI435
(dp436
sI436
(dp437
sI437
(dp438
sI438
(dp439
sI439
(dp440
sI440
(dp441
sI441
(dp442
sI442
(dp443
sI443
(dp444
sI444
(dp445
sI445
(dp446
sI446
(dp447
sI447
(dp448
sI448
(dp449
sI449
(dp450
sI450
(dp451
sI451
(dp452
sI452
(dp453
sI453
(dp454
sI454
(dp455
sI455
(dp456
sI456
(dp457
sI457
(dp458
sI458
(dp459
sI459
(dp460
sI460
(dp461
sI461
(dp462
sI462
(dp463
sI463
(dp464
sI464
(dp465
sI465
(dp466
sI466
(dp467
sI467
(dp468
sI468
(dp469
sI469
(dp470
sI470
(dp471
sI471
(dp472
sI472
(dp473
sI473
(dp474
sI474
(dp475
sI475
(dp476
sI476
(dp477
sI477
(dp478
sI478
(dp479
sI479
(dp480
sI480
(dp481
sI481
(dp482
sI482
(dp483
sI483
(dp484
sI484
(dp485
sI485
(dp486
sI486
(dp487
sI487
(dp488
sI488
(dp489
sI489
(dp490
sI490
(dp491
sI491
(dp492
sI492
(dp493
sI493
(dp494
sI494
(dp495
sI495
(dp496
sI496
(dp497
sI497
(dp498
sI498
(dp499
sI499
(dp500
sI500
(dp501
sI501
(dp502
s.