(dp0
I0
(dp1
sI1
(dp2
sI2
(dp3
sI3
(dp4
sI4
(dp5
sI5
(dp6
sI6
(dp7
sI7
(dp8
sI8
(dp9
sI9
(dp10
sI10
(dp11
sI11
(dp12
sI12
(dp13
sI13
(dp14
sI14
(dp15
sI15
(dp16
sI16
(dp17
sI17
(dp18
sI18
(dp19
sI19
(dp20
sI20
(dp21
sI21
(dp22
sI22
(dp23
sI23
(dp24
sI24
(dp25
sI25
(dp26
sI26
(dp27
sI27
(dp28
sI28
(dp29
sI29
(dp30
sI30
(dp31
sI31
(dp32
sI32
(dp33
sI33
(dp34
sI34
(dp35
sI35
(dp36
sI36
(dp37
sI37
(dp38
sI38
(dp39
sI39
(dp40
sI40
(dp41
sI41
(dp42
sI42
(dp43
sI43
(dp44
sI44
(dp45
sI45
(dp46
sI46
(dp47
sI47
(dp48
sI48
(dp49
sI49
(dp50
sI50
(dp51
sI51
(dp52
sI52
(dp53
sI53
(dp54
sI54
(dp55
sI55
(dp56
sI56
(dp57
sI57
(dp58
sI58
(dp59
sI59
(dp60
sI60
(dp61
sI61
(dp62
sI62
(dp63
sI63
(dp64
sI64
(dp65
sI65
(dp66
sI66
(dp67
sI67
(dp68
sI68
(dp69
sI69
(dp70
sI70
(dp71
sI71
(dp72
sI72
(dp73
sI73
(dp74
sI74
(dp75
sI75
(dp76
sI76
(dp77
sI77
(dp78
sI78
(dp79
sI79
(dp80
sI80
(dp81
sI81
(dp82
sI82
(dp83
sI83
(dp84
sI84
(dp85
sI85
(dp86
sI86
(dp87
sI87
(dp88
sI88
(dp89
sI89
(dp90
sI90
(dp91
sI91
(dp92
sI92
(dp93
sI93
(dp94
sI94
(dp95
sI95
(dp96
sI96
(dp97
sI97
(dp98
sI98
(dp99
sI99
(dp100
sI100
(dp101
sI101
(dp102
sI102
(dp103
sI103
(dp104
sI104
(dp105
sI105
(dp106
sI106
(dp107
sI107
(dp108
sI108
(dp109
sI109
(dp110
sI110
(dp111
sI111
(dp112
sI112
(dp113
sI113
(dp114
sI114
(dp115
sI115
(dp116
sI116
(dp117
sI117
(dp118
sI118
(dp119
sI119
(dp120
sI120
(dp121
sI121
(dp122
sI122
(dp123
sI123
(dp124
sI124
(dp125
sI125
(dp126
sI126
(dp127
sI127
(dp128
sI128
(dp129
sI129
(dp130
sI130
(dp131
sI131
(dp132
sI132
(dp133
sI133
(dp134
sI134
(dp135
sI135
(dp136
sI136
(dp137
sI137
(dp138
sI138
(dp139
sI139
(dp140
sI140
(dp141
sI141
(dp142
sI142
(dp143
sI143
(dp144
sI144
(dp145
sI145
(dp146
sI146
(dp147
sI147
(dp148
sI148
(dp149
sI149
(dp150
sI150
(dp151
sI151
(dp152
sI152
(dp153
sI153
(dp154
sI154
(dp155
sI155
(dp156
sI156
(dp157
sI157
(dp158
sI158
(dp159
sI159
(dp160
sI160
(dp161
sI161
(dp162
sI162
(dp163
sI163
(dp164
sI164
(dp165
sI165
(dp166
sI166
(dp167
sI167
(dp168
sI168
(dp169
sI169
(dp170
sI170
(dp171
sI171
(dp172
sI172
(dp173
sI173
(dp174
sI174
(dp175
sI175
(dp176
sI176
(dp177
sI177
(dp178
sI178
(dp179
sI179
(dp180
sI180
(dp181
sI181
(dp182
sI182
(dp183
sI183
(dp184
sI184
(dp185
sI185
(dp186
sI186
(dp187
sI187
(dp188
sI188
(dp189
s.