(dp0
S'counter_example'
p1
(lp2
I0
aI1
aI4
aI5
aI7
aI10
aI11
aI12
aI14
aI15
aI17
aI19
asS'bool_model'
p3
(lp4
I00
aI00
aI00
aI00
aI00
aI00
aI00
aI01
aI00
aI00
aI01
aI01
aI00
aI00
aI00
aI01
aI00
aI00
aI00
aI01
as.