(dp0
S'counter_example'
p1
(lp2
I1
aI2
aI3
aI4
aI5
aI6
aI7
aI8
aI9
aI13
aI14
aI16
aI17
aI18
aI19
asS'bool_model'
p3
(lp4
I00
aI01
aI01
aI00
aI00
aI00
aI00
aI01
aI01
aI01
aI00
aI00
aI00
aI00
aI01
aI00
aI00
aI01
aI00
aI01
as.