(dp0
S'counter_example'
p1
(lp2
I0
aI1
aI2
aI4
aI5
aI7
aI11
aI12
aI14
aI15
aI19
aI3
aI9
aI13
aI17
aI18
asS'diff'
p3
I5
sS'bool_model'
p4
(lp5
I00
aI00
aI01
aI01
aI00
aI00
aI00
aI01
aI00
aI01
aI00
aI01
aI00
aI00
aI00
aI01
aI00
aI01
aI00
aI01
as.