(dp0
S'counter_example'
p1
(lp2
I1
aI2
aI5
aI7
aI9
aI10
aI15
aI17
aI19
aI0
aI4
aI6
aI8
aI11
aI12
aI13
aI14
aI16
aI18
asS'diff'
p3
I10
sS'bool_model'
p4
(lp5
I00
aI01
aI01
aI00
aI01
aI01
aI00
aI01
aI01
aI01
aI00
aI01
aI00
aI00
aI01
aI01
aI00
aI01
aI01
aI01
as.