(dp0
S'counter_example'
p1
(lp2
I0
aI1
aI2
aI3
aI5
aI6
aI7
aI8
aI9
aI12
aI13
aI15
aI16
aI18
aI19
aI4
aI10
aI17
asS'diff'
p3
I3
sS'bool_model'
p4
(lp5
I00
aI00
aI01
aI00
aI01
aI00
aI00
aI01
aI01
aI01
aI01
aI00
aI00
aI00
aI00
aI01
aI00
aI01
aI00
aI01
as.