(dp0
S'counter_example'
p1
(lp2
I0
aI2
aI3
aI6
aI7
aI8
aI9
aI10
aI12
aI14
aI15
aI17
aI18
aI19
aI1
aI4
aI5
aI11
aI13
asS'diff'
p3
I5
sS'bool_model'
p4
(lp5
I00
aI01
aI01
aI00
aI01
aI01
aI00
aI01
aI01
aI01
aI00
aI00
aI00
aI01
aI01
aI01
aI00
aI01
aI01
aI01
as.