(dp0
S'counter_example'
p1
(lp2
I0
aI2
aI3
aI4
aI5
aI6
aI7
aI8
aI9
aI13
aI15
aI16
aI17
aI18
aI19
aI10
aI11
aI12
aI14
asS'diff'
p3
I4
sS'bool_model'
p4
(lp5
I00
aI00
aI01
aI00
aI00
aI00
aI00
aI01
aI01
aI01
aI01
aI01
aI00
aI00
aI01
aI01
aI00
aI01
aI00
aI01
as.