(lp0
I93
aI94
aI95
aI39
aI59
aI57
aI62
aI58
aI72
aI76
aI75
aI13
aI89
aI20
aI60
aI64
aI78
aI77
aI36
aI38
aI46
aI23
aI37
aI21
aI12
aI90
aI63
aI1
aI68
aI32
aI35
aI69
aI22
aI31
aI92
aI91
aI53
aI54
aI66
aI67
aI61
aI56
aI29
aI34
aI45
aI44
aI55
aI0
aI24
aI27
aI86
aI88
aI30
aI33
aI43
aI83
aI52
aI28
aI25
aI87
aI65
aI40
aI42
aI82
aI26
aI73
aI70
aI74
aI71
aI81
aI80
aI41
aI11
aI79
aI10
aI6
aI7
aI2
aI3
aI8
aI5
aI9
aI4
aI50
aI17
a.